BL51 BANKED LINKER/LOCATER V6.22                                                        08/30/2015  19:47:02  PAGE 1


BL51 BANKED LINKER/LOCATER V6.22, INVOKED BY:
D:\KEIL\C51\BIN\BL51.EXE ..\Obj\main.obj, ..\Obj\1602.obj, ..\Obj\dig_c.obj, ..\Obj\hc165.obj, ..\Obj\member.obj, ..\Obj
>> \mySPI.obj, ..\Obj\NRF24l01.obj, ..\Obj\oled.obj, ..\Obj\uart.obj, ..\Obj\Myiic.obj, ..\Obj\MPU6050.obj, ..\Obj\key.o
>> bj, ..\Obj\flash.obj TO ..\Obj\Test PRINT (..\Obj\Test.m51) RAMSIZE (256)


MEMORY MODEL: COMPACT


INPUT MODULES INCLUDED:
  ..\Obj\main.obj (MAIN)
  ..\Obj\1602.obj (1602)
  ..\Obj\dig_c.obj (DIG_C)
  ..\Obj\hc165.obj (HC165)
  ..\Obj\member.obj (MEMBER)
  ..\Obj\mySPI.obj (MYSPI)
  ..\Obj\NRF24l01.obj (NRF24L01)
  ..\Obj\oled.obj (OLED)
  ..\Obj\uart.obj (UART)
  ..\Obj\Myiic.obj (MYIIC)
  ..\Obj\MPU6050.obj (MPU6050)
  ..\Obj\key.obj (KEY)
  ..\Obj\flash.obj (FLASH)
  D:\KEIL\C51\LIB\C51C.LIB (?C_STARTUP)
  D:\KEIL\C51\LIB\C51C.LIB (?C?COPY)
  D:\KEIL\C51\LIB\C51C.LIB (?C?CLDPTR)
  D:\KEIL\C51\LIB\C51C.LIB (?C?CLDOPTR)
  D:\KEIL\C51\LIB\C51C.LIB (?C?CSTOPTR)
  D:\KEIL\C51\LIB\C51C.LIB (?C?IMUL)
  D:\KEIL\C51\LIB\C51C.LIB (?C?UIDIV)
  D:\KEIL\C51\LIB\C51C.LIB (?C?SIDIV)
  D:\KEIL\C51\LIB\C51C.LIB (?C?SLDIV)
  D:\KEIL\C51\LIB\C51C.LIB (?C_INIT)
  D:\KEIL\C51\LIB\C51C.LIB (?C?ULDIV)


LINK MAP OF MODULE:  ..\Obj\Test (MAIN)


            TYPE    BASE      LENGTH    RELOCATION   SEGMENT NAME
            -----------------------------------------------------

            * * * * * * *   D A T A   M E M O R Y   * * * * * * *
            REG     0000H     0008H     ABSOLUTE     "REG BANK 0"
                    0008H     0018H                  *** GAP ***
            BIT     0020H.0   0000H.1   UNIT         ?BI?LCD1602_BUSY?1602
                    0020H.1   0000H.7                *** GAP ***
            IDATA   0021H     0001H     UNIT         ?STACK

            * * * * * * *  X D A T A   M E M O R Y  * * * * * * *
            XDATA   0000H     0006H     INPAGE       ?PD?_LCD1602_SHOWSTRING?1602
            XDATA   0006H     0004H     INPAGE       ?PD?_MYPOW?1602
            XDATA   000AH     0007H     INPAGE       ?PD?_LCD1602_SHOWNUM?1602
            XDATA   0011H     0002H     INPAGE       ?PD?DIGC_TEST?DIG_C
            XDATA   0013H     0001H     INPAGE       ?PD?_HC165_TEST?HC165
            XDATA   0014H     000EH     INPAGE       ?PD?MEMBER
            XDATA   0022H     0001H     INPAGE       ?PD?_SPI_READWRITEBYTE1?MYSPI
            XDATA   0023H     0002H     INPAGE       ?PD?_NRF24L01_WRITE_REG?NRF24L01
BL51 BANKED LINKER/LOCATER V6.22                                                      08/30/2015  19:47:02  PAGE 2


            XDATA   0025H     0001H     INPAGE       ?PD?_NRF24L01_TXPACKET?NRF24L01
            XDATA   0026H     0004H     INPAGE       ?PD?_NRF24L01_RXPACKET?NRF24L01
            XDATA   002AH     000AH     INPAGE       ?PD?NRF24L01
            XDATA   0034H     0001H     INPAGE       ?PD?OLED_TEST?OLED
            XDATA   0035H     0007H     INPAGE       ?PD?_SHOW_F6X8STR?OLED
            XDATA   003CH     0001H     INPAGE       ?PD?_MY_POW?OLED
            XDATA   003DH     0005H     INPAGE       ?PD?_SHOW_NUM_F8X16?OLED
            XDATA   0042H     0005H     INPAGE       ?PD?_SHOW_NUM_F6X8?OLED
            XDATA   0047H     0001H     INPAGE       ?PD?_SHOW_CHINESE?OLED
            XDATA   0048H     0008H     INPAGE       ?PD?_SHOW_PICTURE?OLED
            XDATA   0050H     000AH     INPAGE       ?PD?_UART_SENDNUM?UART
            XDATA   005AH     0001H     INPAGE       ?PD?MPU6050_TEST?MPU6050
            XDATA   005BH     0001H     INPAGE       ?PD?MPU6050_READ_ALL_DAT?MPU6050
            XDATA   005CH     0002H     INPAGE       ?PD?FLASH_TEST?FLASH
            XDATA   005EH     0002H     INPAGE       ?PD?SPI_FLASH_READID?FLASH
            XDATA   0060H     0009H     INPAGE       ?PD?_SPI_FLASH_WRITE_PAGE?FLASH
            XDATA   0069H     0009H     INPAGE       ?PD?_SPI_FLASH_READ?FLASH
            XDATA   0072H     000DH     INPAGE       _PDATA_GROUP_

            * * * * * * *   C O D E   M E M O R Y   * * * * * * *
            CODE    0000H     0003H     ABSOLUTE     
            CODE    0003H     001FH     UNIT         ?CO?NRF24L01
                    0022H     0001H                  *** GAP ***
            CODE    0023H     0003H     ABSOLUTE     
            CODE    0026H     0C08H     UNIT         ?CO?MEMBER
            CODE    0C2EH     02C9H     UNIT         ?C?LIB_CODE
            CODE    0EF7H     0115H     UNIT         ?PR?_UART_SENDNUM?UART
            CODE    100CH     00DCH     UNIT         ?PR?_SHOW_PICTURE?OLED
            CODE    10E8H     009FH     UNIT         ?PR?OLED_INIT?OLED
            CODE    1187H     0096H     UNIT         ?PR?_SHOW_F8X16STR?OLED
            CODE    121DH     008FH     UNIT         ?PR?_SHOW_NUM_F8X16?OLED
            CODE    12ACH     008CH     UNIT         ?C_C51STARTUP
            CODE    1338H     0085H     UNIT         ?PR?_SPI_FLASH_READ?FLASH
            CODE    13BDH     0082H     UNIT         ?PR?_SPI_FLASH_WRITE_PAGE?FLASH
            CODE    143FH     0079H     UNIT         ?PR?_LCD1602_SHOWNUM?1602
            CODE    14B8H     0075H     UNIT         ?PR?_SHOW_F6X8STR?OLED
            CODE    152DH     0070H     UNIT         ?PR?_SHOW_CHINESE?OLED
            CODE    159DH     0062H     UNIT         ?PR?_SHOW_NUM_F6X8?OLED
            CODE    15FFH     0054H     UNIT         ?PR?_NRF24L01_WRITE_BUF?NRF24L01
            CODE    1653H     0050H     UNIT         ?PR?_LCD1602_SHOWSTRING?1602
            CODE    16A3H     004DH     UNIT         ?PR?NRF24L01_CHECK?NRF24L01
            CODE    16F0H     004AH     UNIT         ?PR?_NRF24L01_READ_BUF?NRF24L01
            CODE    173AH     0046H     UNIT         ?PR?MPU6050_READ_ALL_DAT?MPU6050
            CODE    1780H     0045H     UNIT         ?PR?MPU6050_TEST?MPU6050
            CODE    17C5H     0044H     UNIT         ?PR?FLASH_TEST?FLASH
            CODE    1809H     0044H     UNIT         ?C?LDIV
            CODE    184DH     0042H     UNIT         ?PR?TX_MODE?NRF24L01
            CODE    188FH     0042H     UNIT         ?PR?UART?UART
            CODE    18D1H     0040H     UNIT         ?PR?_NRF24L01_RXPACKET?NRF24L01
            CODE    1911H     003FH     UNIT         ?PR?_HC165_TEST?HC165
            CODE    1950H     003EH     UNIT         ?PR?OLED_TEST?OLED
            CODE    198EH     003BH     UNIT         ?PR?SPI_FLASH_READID?FLASH
            CODE    19C9H     0039H     UNIT         ?PR?_NRF24L01_TXPACKET?NRF24L01
            CODE    1A02H     0037H     UNIT         ?PR?MPU6050_INIT?MPU6050
            CODE    1A39H     0032H     UNIT         ?PR?RX_MODE?NRF24L01
            CODE    1A6BH     0031H     UNIT         ?PR?DIGC_TEST?DIG_C
            CODE    1A9CH     0030H     UNIT         ?PR?_MYPOW?1602
BL51 BANKED LINKER/LOCATER V6.22                                                      08/30/2015  19:47:02  PAGE 3


            CODE    1ACCH     002FH     UNIT         ?CO?HC165
            CODE    1AFBH     002FH     UNIT         ?PR?_WRITE_COM?OLED
            CODE    1B2AH     002EH     UNIT         ?PR?_WRITE_DATA?OLED
            CODE    1B58H     002AH     UNIT         ?PR?_UART_INIT?UART
            CODE    1B82H     002AH     UNIT         ?PR?IIC_WAIT_ACK?MYIIC
            CODE    1BACH     0027H     UNIT         ?CO?MPU6050
            CODE    1BD3H     0025H     UNIT         ?PR?_SET_POS?OLED
            CODE    1BF8H     0025H     UNIT         ?CO?FLASH
            CODE    1C1DH     0024H     UNIT         ?PR?_IIC_READ_BYTE?MYIIC
            CODE    1C41H     0023H     UNIT         ?PR?_DELAY_MS?MEMBER
            CODE    1C64H     0023H     UNIT         ?PR?_MY_POW?OLED
            CODE    1C87H     0022H     UNIT         ?PR?HC165_GETDATA?HC165
            CODE    1CA9H     0022H     UNIT         ?PR?_IIC_SEND_BYTE?MYIIC
            CODE    1CCBH     0021H     UNIT         ?PR?_SPI_READWRITEBYTE1?MYSPI
            CODE    1CECH     0021H     UNIT         ?PR?_SPI_READWRITEBYTE?MYSPI
            CODE    1D0DH     0021H     UNIT         ?PR?_DEVICE_READ_BYTE?MYIIC
            CODE    1D2EH     001BH     UNIT         ?PR?KEYSCAN?KEY
            CODE    1D49H     001AH     UNIT         ?PR?_NRF24L01_WRITE_REG?NRF24L01
            CODE    1D63H     0019H     UNIT         ?PR?LCD1602_INIT?1602
            CODE    1D7CH     0019H     UNIT         ?PR?_LCD1602_WRITECOM?1602
            CODE    1D95H     0019H     UNIT         ?PR?_LCD1602_WRITEDATA?1602
            CODE    1DAEH     0019H     UNIT         ?PR?NRF24L01_TEST?NRF24L01
            CODE    1DC7H     0017H     UNIT         ?PR?LCD1602_BUSY?1602
            CODE    1DDEH     0017H     UNIT         ?PR?LCD_FILL?OLED
            CODE    1DF5H     0017H     UNIT         ?PR?LCD_CLS?OLED
            CODE    1E0CH     0013H     UNIT         ?PR?_UARTSENDSTR?UART
            CODE    1E1FH     0012H     UNIT         ?C_INITSEG
            CODE    1E31H     0011H     UNIT         ?PR?_DEVICE_WRITE_BYTE?MYIIC
            CODE    1E42H     0010H     UNIT         ?CO?1602
            CODE    1E52H     0010H     UNIT         ?PR?SPI_FLASH_READSR?FLASH
            CODE    1E62H     000DH     UNIT         ?PR?LCD1602_TEST?1602
            CODE    1E6FH     000DH     UNIT         ?PR?_NRF24L01_READ_REG?NRF24L01
            CODE    1E7CH     000BH     UNIT         ?PR?MAIN?MAIN
            CODE    1E87H     000BH     UNIT         ?CO?UART
            CODE    1E92H     000BH     UNIT         ?PR?IIC_START?MYIIC
            CODE    1E9DH     000BH     UNIT         ?PR?IIC_STOP?MYIIC
            CODE    1EA8H     000BH     UNIT         ?PR?IIC_ACK?MYIIC
            CODE    1EB3H     000BH     UNIT         ?PR?IIC_NACK?MYIIC
            CODE    1EBEH     000AH     UNIT         ?PR?SPI_FLASH_WRITE_ENABLE?FLASH
            CODE    1EC8H     0008H     UNIT         ?PR?_UARTSENTCHAR?UART
            CODE    1ED0H     0008H     UNIT         ?PR?SPI_FLASH_WAIT_BUSY?FLASH
            CODE    1ED8H     0007H     UNIT         ?PR?NRF24L01_INIT?NRF24L01
            CODE    1EDFH     0005H     UNIT         ?PR?IIC_INIT?MYIIC



OVERLAY MAP OF MODULE:   ..\Obj\Test (MAIN)


SEGMENT                                    PDATA_GROUP
  +--> CALLED SEGMENT                    START    LENGTH
--------------------------------------------------------
?PR?UART?UART                            -----    -----
  +--> ?PR?_UARTSENTCHAR?UART

*** NEW ROOT ***************************************************

BL51 BANKED LINKER/LOCATER V6.22                                                      08/30/2015  19:47:02  PAGE 4


?C_C51STARTUP                            -----    -----
  +--> ?PR?MAIN?MAIN
  +--> ?C_INITSEG

?PR?MAIN?MAIN                            -----    -----
  +--> ?PR?NRF24L01_INIT?NRF24L01
  +--> ?PR?OLED_INIT?OLED
  +--> ?PR?NRF24L01_TEST?NRF24L01

?PR?OLED_INIT?OLED                       -----    -----
  +--> ?PR?_DELAY_MS?MEMBER
  +--> ?PR?_WRITE_COM?OLED
  +--> ?PR?LCD_CLS?OLED
  +--> ?PR?_SET_POS?OLED

?PR?LCD_CLS?OLED                         -----    -----
  +--> ?PR?_WRITE_COM?OLED
  +--> ?PR?_WRITE_DATA?OLED

?PR?_WRITE_DATA?OLED                     -----    -----
  +--> ?CO?MEMBER

?PR?_SET_POS?OLED                        -----    -----
  +--> ?PR?_WRITE_COM?OLED

?PR?NRF24L01_TEST?NRF24L01               -----    -----
  +--> ?PR?NRF24L01_CHECK?NRF24L01
  +--> ?CO?NRF24L01
  +--> ?PR?_SHOW_F8X16STR?OLED

?PR?NRF24L01_CHECK?NRF24L01              0072H    0005H
  +--> ?CO?NRF24L01
  +--> ?PR?_NRF24L01_WRITE_BUF?NRF24L01
  +--> ?PR?_NRF24L01_READ_BUF?NRF24L01

?PR?_NRF24L01_WRITE_BUF?NRF24L01         0077H    0007H
  +--> ?PR?_SPI_READWRITEBYTE?MYSPI

?PR?_SPI_READWRITEBYTE?MYSPI             007EH    0001H

?PR?_NRF24L01_READ_BUF?NRF24L01          0077H    0007H
  +--> ?PR?_SPI_READWRITEBYTE?MYSPI

?PR?_SHOW_F8X16STR?OLED                  0072H    0007H
  +--> ?PR?_SET_POS?OLED
  +--> ?CO?MEMBER
  +--> ?PR?_WRITE_DATA?OLED



SYMBOL TABLE OF MODULE:  ..\Obj\Test (MAIN)

  VALUE           TYPE          NAME
  ----------------------------------

  -------         MODULE        MAIN
  C:0000H         SYMBOL        _ICE_DUMMY_
BL51 BANKED LINKER/LOCATER V6.22                                                      08/30/2015  19:47:02  PAGE 5


  D:0080H         PUBLIC        P0
  D:0090H         PUBLIC        P1
  D:00A0H         PUBLIC        P2
  D:00B0H         PUBLIC        P3
  D:00A8H         PUBLIC        IE
  D:00B8H         PUBLIC        IP
  C:1E7CH         PUBLIC        main
  D:0098H         PUBLIC        SCON
  D:0088H         PUBLIC        TCON
  D:00C8H         PUBLIC        T2CON
  D:00D0H         PUBLIC        PSW
  -------         PROC          MAIN
  C:1E7CH         LINE#         4
  C:1E7CH         LINE#         5
  C:1E7CH         LINE#         7
  C:1E7FH         LINE#         18
  C:1E82H         LINE#         22
  C:1E85H         LINE#         25
  C:1E85H         LINE#         26
  C:1E85H         LINE#         28
  -------         ENDPROC       MAIN
  -------         ENDMOD        MAIN

  -------         MODULE        1602
  C:0000H         SYMBOL        _ICE_DUMMY_
  C:1A9CH         PUBLIC        _MyPow
  D:0080H         PUBLIC        P0
  D:0090H         PUBLIC        P1
  D:00A0H         PUBLIC        P2
  D:00B0H         PUBLIC        P3
  C:1D95H         PUBLIC        _LCD1602_WriteData
  D:00A8H         PUBLIC        IE
  C:1D63H         PUBLIC        LCD1602_Init
  B:00A0H.3       PUBLIC        LCD1602_LCDE
  D:00B8H         PUBLIC        IP
  C:1653H         PUBLIC        _LCD1602_ShowString
  C:1E62H         PUBLIC        LCD1602_Test
  C:1DC7H         PUBLIC        LCD1602_Busy
  B:00A0H.5       PUBLIC        LCD1602_RS
  B:00A0H.4       PUBLIC        LCD1602_RW
  C:1D7CH         PUBLIC        _LCD1602_WriteCom
  D:0098H         PUBLIC        SCON
  D:0088H         PUBLIC        TCON
  C:143FH         PUBLIC        _LCD1602_ShowNum
  D:00C8H         PUBLIC        T2CON
  D:00D0H         PUBLIC        PSW
  -------         PROC          LCD1602_TEST
  C:1E62H         LINE#         3
  C:1E62H         LINE#         4
  C:1E62H         LINE#         5
  -------         ENDPROC       LCD1602_TEST
  -------         PROC          LCD1602_INIT
  C:1D63H         LINE#         13
  C:1D63H         LINE#         14
  C:1D63H         LINE#         15
  C:1D68H         LINE#         17
  C:1D6DH         LINE#         19
BL51 BANKED LINKER/LOCATER V6.22                                                      08/30/2015  19:47:02  PAGE 6


  C:1D72H         LINE#         21
  C:1D77H         LINE#         23
  -------         ENDPROC       LCD1602_INIT
  -------         PROC          LCD1602_BUSY
  -------         DO            
  B:0020H.0       SYMBOL        result
  -------         ENDDO         
  C:1DC7H         LINE#         26
  C:1DC7H         LINE#         27
  C:1DC7H         LINE#         29
  C:1DC9H         LINE#         30
  C:1DCBH         LINE#         31
  C:1DCDH         LINE#         32
  C:1DD4H         LINE#         33
  C:1DD9H         LINE#         34
  C:1DDBH         LINE#         35
  C:1DDDH         LINE#         36
  -------         ENDPROC       LCD1602_BUSY
  -------         PROC          _LCD1602_WRITECOM
  D:0007H         SYMBOL        com
  C:1D7CH         LINE#         37
  C:1D7CH         LINE#         38
  C:1D7CH         LINE#         40
  C:1D7EH         LINE#         41
  C:1D80H         LINE#         42
  C:1D82H         LINE#         43
  C:1D89H         LINE#         44
  C:1D8BH         LINE#         45
  C:1D92H         LINE#         46
  C:1D94H         LINE#         47
  -------         ENDPROC       _LCD1602_WRITECOM
  -------         PROC          _LCD1602_WRITEDATA
  D:0007H         SYMBOL        date
  C:1D95H         LINE#         48
  C:1D95H         LINE#         49
  C:1D95H         LINE#         51
  C:1D97H         LINE#         52
  C:1D99H         LINE#         53
  C:1D9BH         LINE#         54
  C:1DA2H         LINE#         55
  C:1DA4H         LINE#         56
  C:1DABH         LINE#         57
  C:1DADH         LINE#         58
  -------         ENDPROC       _LCD1602_WRITEDATA
  -------         PROC          _LCD1602_SHOWSTRING
  X:0000H         SYMBOL        x
  X:0001H         SYMBOL        y
  X:0002H         SYMBOL        ch
  -------         DO            
  X:0005H         SYMBOL        i
  -------         ENDDO         
  C:1653H         LINE#         61
  C:1665H         LINE#         62
  C:1665H         LINE#         63
  C:1669H         LINE#         64
  C:1673H         LINE#         66
  C:1681H         LINE#         68
BL51 BANKED LINKER/LOCATER V6.22                                                      08/30/2015  19:47:02  PAGE 7


  C:1698H         LINE#         69
  C:1698H         LINE#         70
  C:169BH         LINE#         71
  C:16A0H         LINE#         72
  C:16A2H         LINE#         73
  -------         ENDPROC       _LCD1602_SHOWSTRING
  -------         PROC          _MYPOW
  X:0006H         SYMBOL        m
  X:0008H         SYMBOL        n
  -------         DO            
  D:0006H         SYMBOL        result
  -------         ENDDO         
  C:1A9CH         LINE#         76
  C:1AA9H         LINE#         77
  C:1AA9H         LINE#         78
  C:1AADH         LINE#         79
  C:1ABFH         LINE#         80
  C:1ACBH         LINE#         81
  C:1ACBH         LINE#         83
  -------         ENDPROC       _MYPOW
  -------         PROC          _LCD1602_SHOWNUM
  X:000AH         SYMBOL        x
  X:000BH         SYMBOL        y
  X:000CH         SYMBOL        num
  X:000EH         SYMBOL        len
  -------         DO            
  X:000FH         SYMBOL        temp
  X:0010H         SYMBOL        i
  -------         ENDDO         
  C:143FH         LINE#         84
  C:144EH         LINE#         85
  C:144EH         LINE#         87
  C:1451H         LINE#         88
  C:1457H         LINE#         90
  C:145DH         LINE#         91
  C:1465H         LINE#         93
  C:1475H         LINE#         94
  C:1475H         LINE#         95
  C:14AAH         LINE#         96
  C:14B0H         LINE#         97
  C:14B7H         LINE#         98
  -------         ENDPROC       _LCD1602_SHOWNUM
  -------         ENDMOD        1602

  -------         MODULE        DIG_C
  C:0000H         SYMBOL        _ICE_DUMMY_
  D:0080H         PUBLIC        P0
  D:0090H         PUBLIC        P1
  D:00A0H         PUBLIC        P2
  D:00B0H         PUBLIC        P3
  D:00A8H         PUBLIC        IE
  D:00B8H         PUBLIC        IP
  D:0098H         PUBLIC        SCON
  D:0088H         PUBLIC        TCON
  C:1A6BH         PUBLIC        DigC_Test
  D:00C8H         PUBLIC        T2CON
  D:00D0H         PUBLIC        PSW
BL51 BANKED LINKER/LOCATER V6.22                                                      08/30/2015  19:47:02  PAGE 8


  -------         PROC          DIGC_TEST
  -------         DO            
  X:0011H         SYMBOL        i
  X:0012H         SYMBOL        j
  -------         ENDDO         
  C:1A6BH         LINE#         3
  C:1A6BH         LINE#         4
  C:1A6BH         LINE#         7
  C:1A6FH         LINE#         8
  C:1A6FH         LINE#         9
  C:1A7FH         LINE#         10
  C:1A86H         LINE#         11
  C:1A8DH         LINE#         12
  C:1A90H         LINE#         13
  C:1A9BH         LINE#         27
  -------         ENDPROC       DIGC_TEST
  -------         ENDMOD        DIG_C

  -------         MODULE        HC165
  C:0000H         SYMBOL        _ICE_DUMMY_
  D:0080H         PUBLIC        P0
  D:0090H         PUBLIC        P1
  D:00A0H         PUBLIC        P2
  D:00B0H         PUBLIC        P3
  D:00A8H         PUBLIC        IE
  D:00B8H         PUBLIC        IP
  B:0090H.6       PUBLIC        HC165_PL
  C:1C87H         PUBLIC        HC165_GetData
  C:1911H         PUBLIC        _HC165_Test
  B:00B0H.5       PUBLIC        HC165_SO
  D:0098H         PUBLIC        SCON
  D:0088H         PUBLIC        TCON
  B:0090H.7       PUBLIC        HC165_CLK
  D:00C8H         PUBLIC        T2CON
  D:00D0H         PUBLIC        PSW
  -------         PROC          _HC165_TEST
  D:0007H         SYMBOL        testdat
  -------         DO            
  X:0013H         SYMBOL        temp
  -------         ENDDO         
  C:1911H         LINE#         4
  C:1911H         LINE#         5
  C:1911H         LINE#         7
  C:1913H         LINE#         8
  C:191AH         LINE#         10
  C:1920H         LINE#         11
  C:1920H         LINE#         12
  C:1924H         LINE#         13
  C:1924H         LINE#         14
  C:1924H         LINE#         15
  C:1926H         LINE#         17
  C:1926H         LINE#         18
  C:1930H         LINE#         19
  C:193DH         LINE#         20
  C:194FH         LINE#         21
  C:194FH         LINE#         36
  -------         ENDPROC       _HC165_TEST
BL51 BANKED LINKER/LOCATER V6.22                                                      08/30/2015  19:47:02  PAGE 9


  -------         PROC          HC165_GETDATA
  -------         DO            
  D:0006H         SYMBOL        i
  D:0007H         SYMBOL        result
  -------         ENDDO         
  C:1C87H         LINE#         37
  C:1C87H         LINE#         38
  C:1C87H         LINE#         39
  C:1C89H         LINE#         40
  C:1C8BH         LINE#         41
  C:1C8DH         LINE#         42
  C:1C8FH         LINE#         44
  C:1C93H         LINE#         46
  C:1C95H         LINE#         47
  C:1C95H         LINE#         48
  C:1C97H         LINE#         49
  C:1C99H         LINE#         51
  C:1C9DH         LINE#         52
  C:1CA3H         LINE#         53
  C:1CA8H         LINE#         54
  C:1CA8H         LINE#         55
  -------         ENDPROC       HC165_GETDATA
  -------         ENDMOD        HC165

  -------         MODULE        MEMBER
  C:0000H         SYMBOL        _ICE_DUMMY_
  C:0076H         PUBLIC        F_DigC
  C:02BEH         PUBLIC        f8x16
  D:0080H         PUBLIC        P0
  D:0090H         PUBLIC        P1
  D:00A0H         PUBLIC        P2
  D:00B0H         PUBLIC        P3
  C:0026H         PUBLIC        ledarray_num
  D:00A8H         PUBLIC        IE
  D:00B8H         PUBLIC        IP
  X:0014H         PUBLIC        MPU6050_Data
  C:08AEH         PUBLIC        logo
  C:1C41H         PUBLIC        _Delay_ms
  D:0098H         PUBLIC        SCON
  D:0088H         PUBLIC        TCON
  X:0021H         PUBLIC        Timer0Count
  C:0096H         PUBLIC        f6x8
  D:00C8H         PUBLIC        T2CON
  D:00D0H         PUBLIC        PSW
  C:0086H         PUBLIC        F_DigA
  -------         PROC          _DELAY_MS
  D:0006H         SYMBOL        z
  -------         DO            
  D:0004H         SYMBOL        x
  D:0002H         SYMBOL        y
  -------         ENDDO         
  C:1C41H         LINE#         3
  C:1C41H         LINE#         4
  C:1C41H         LINE#         6
  C:1C44H         LINE#         7
  C:1C63H         LINE#         8
  -------         ENDPROC       _DELAY_MS
BL51 BANKED LINKER/LOCATER V6.22                                                      08/30/2015  19:47:02  PAGE 10


  -------         ENDMOD        MEMBER

  -------         MODULE        MYSPI
  C:0000H         SYMBOL        _ICE_DUMMY_
  D:0080H         PUBLIC        P0
  D:0090H         PUBLIC        P1
  D:00A0H         PUBLIC        P2
  D:00B0H         PUBLIC        P3
  B:0090H.0       PUBLIC        SPI_MISO
  B:0090H.2       PUBLIC        SPI_MOSI
  D:00A8H         PUBLIC        IE
  D:00B8H         PUBLIC        IP
  C:1CCBH         PUBLIC        _SPI_ReadWriteByte1
  B:0090H.1       PUBLIC        SPI_CLK
  D:0098H         PUBLIC        SCON
  D:0088H         PUBLIC        TCON
  D:00C8H         PUBLIC        T2CON
  C:1CECH         PUBLIC        _SPI_ReadWriteByte
  D:00D0H         PUBLIC        PSW
  -------         PROC          _SPI_READWRITEBYTE1
  D:0007H         SYMBOL        dat
  -------         DO            
  D:0006H         SYMBOL        i
  X:0022H         SYMBOL        val
  -------         ENDDO         
  C:1CCBH         LINE#         3
  C:1CCBH         LINE#         4
  C:1CCBH         LINE#         5
  C:1CCFH         LINE#         6
  C:1CD0H         LINE#         7
  C:1CD0H         LINE#         8
  C:1CD2H         LINE#         9
  C:1CD8H         LINE#         10
  C:1CDCH         LINE#         11
  C:1CDEH         LINE#         13
  C:1CE4H         LINE#         14
  C:1CE6H         LINE#         15
  C:1CEBH         LINE#         16
  C:1CEBH         LINE#         17
  -------         ENDPROC       _SPI_READWRITEBYTE1
  -------         PROC          _SPI_READWRITEBYTE
  D:0007H         SYMBOL        dat
  -------         DO            
  D:0006H         SYMBOL        i
  X:007EH         SYMBOL        val
  -------         ENDDO         
  C:1CECH         LINE#         21
  C:1CECH         LINE#         22
  C:1CECH         LINE#         23
  C:1CF0H         LINE#         24
  C:1CF1H         LINE#         25
  C:1CF1H         LINE#         26
  C:1CF3H         LINE#         27
  C:1CF9H         LINE#         28
  C:1CFDH         LINE#         29
  C:1CFFH         LINE#         31
  C:1D05H         LINE#         32
BL51 BANKED LINKER/LOCATER V6.22                                                      08/30/2015  19:47:02  PAGE 11


  C:1D07H         LINE#         33
  C:1D0CH         LINE#         34
  C:1D0CH         LINE#         35
  -------         ENDPROC       _SPI_READWRITEBYTE
  -------         ENDMOD        MYSPI

  -------         MODULE        NRF24L01
  C:0000H         SYMBOL        _ICE_DUMMY_
  C:1DAEH         PUBLIC        NRF24L01_Test
  D:0080H         PUBLIC        P0
  D:0090H         PUBLIC        P1
  D:00A0H         PUBLIC        P2
  D:00B0H         PUBLIC        P3
  C:18D1H         PUBLIC        _NRF24L01_RxPacket
  C:19C9H         PUBLIC        _NRF24L01_TxPacket
  D:00A8H         PUBLIC        IE
  C:1A39H         PUBLIC        RX_Mode
  X:002AH         PUBLIC        RX_ADDRESS
  C:184DH         PUBLIC        TX_Mode
  X:002FH         PUBLIC        TX_ADDRESS
  D:00B8H         PUBLIC        IP
  B:0090H.1       PUBLIC        SPI_CLK
  D:0098H         PUBLIC        SCON
  D:0088H         PUBLIC        TCON
  C:16A3H         PUBLIC        NRF24L01_Check
  B:0090H.5       PUBLIC        NRF24L01_CSN
  C:001DH         SYMBOL        _?ix1000
  C:16F0H         PUBLIC        _NRF24L01_Read_Buf
  C:1E6FH         PUBLIC        _NRF24L01_Read_Reg
  B:0090H.4       PUBLIC        NRF24L01_CE
  D:00C8H         PUBLIC        T2CON
  C:160CH         PUBLIC        _NRF24L01_Write_Buf
  C:1D49H         PUBLIC        _NRF24L01_Write_Reg
  C:1ED8H         PUBLIC        NRF24L01_Init
  D:00D0H         PUBLIC        PSW
  -------         PROC          NRF24L01_TEST
  C:1DAEH         LINE#         6
  C:1DAEH         LINE#         7
  C:1DAEH         LINE#         8
  C:1DBCH         LINE#         9
  C:1DC6H         LINE#         10
  -------         ENDPROC       NRF24L01_TEST
  -------         PROC          NRF24L01_INIT
  C:1ED8H         LINE#         11
  C:1ED8H         LINE#         12
  C:1ED8H         LINE#         13
  C:1EDAH         LINE#         14
  C:1EDCH         LINE#         15
  C:1EDEH         LINE#         16
  -------         ENDPROC       NRF24L01_INIT
  -------         PROC          NRF24L01_CHECK
  -------         DO            
  X:0072H         SYMBOL        buf
  D:0007H         SYMBOL        i
  -------         ENDDO         
  C:16A3H         LINE#         19
  C:16A3H         LINE#         20
BL51 BANKED LINKER/LOCATER V6.22                                                      08/30/2015  19:47:02  PAGE 12


  C:16A3H         LINE#         21
  C:16B6H         LINE#         24
  C:16C6H         LINE#         25
  C:16D6H         LINE#         26
  C:16E5H         LINE#         27
  C:16EDH         LINE#         28
  C:16EFH         LINE#         29
  -------         ENDPROC       NRF24L01_CHECK
  -------         PROC          _NRF24L01_WRITE_REG
  D:0007H         SYMBOL        reg
  X:0023H         SYMBOL        value
  -------         DO            
  X:0024H         SYMBOL        status
  -------         ENDDO         
  C:1D49H         LINE#         33
  C:1D4DH         LINE#         34
  C:1D4DH         LINE#         36
  C:1D4FH         LINE#         37
  C:1D56H         LINE#         38
  C:1D5CH         LINE#         39
  C:1D5EH         LINE#         40
  C:1D62H         LINE#         41
  -------         ENDPROC       _NRF24L01_WRITE_REG
  -------         PROC          _NRF24L01_READ_REG
  D:0007H         SYMBOL        reg
  -------         DO            
  D:0007H         SYMBOL        reg_val
  -------         ENDDO         
  C:1E6FH         LINE#         44
  C:1E6FH         LINE#         45
  C:1E6FH         LINE#         47
  C:1E71H         LINE#         48
  C:1E74H         LINE#         49
  C:1E79H         LINE#         50
  C:1E7BH         LINE#         51
  C:1E7BH         LINE#         52
  -------         ENDPROC       _NRF24L01_READ_REG
  -------         PROC          _NRF24L01_READ_BUF
  D:0007H         SYMBOL        reg
  X:0078H         SYMBOL        pBuf
  X:007BH         SYMBOL        len
  -------         DO            
  X:007CH         SYMBOL        status
  X:007DH         SYMBOL        u8_ctr
  -------         ENDDO         
  C:16F0H         LINE#         58
  C:16FAH         LINE#         59
  C:16FAH         LINE#         61
  C:16FCH         LINE#         62
  C:1703H         LINE#         63
  C:1711H         LINE#         64
  C:1733H         LINE#         66
  C:1735H         LINE#         67
  C:1739H         LINE#         68
  -------         ENDPROC       _NRF24L01_READ_BUF
  -------         PROC          L?0029
  -------         ENDPROC       L?0029
BL51 BANKED LINKER/LOCATER V6.22                                                      08/30/2015  19:47:02  PAGE 13


  -------         PROC          _NRF24L01_WRITE_BUF
  D:0007H         SYMBOL        reg
  X:0078H         SYMBOL        pBuf
  X:007BH         SYMBOL        len
  -------         DO            
  X:007CH         SYMBOL        status
  X:007DH         SYMBOL        u8_ctr
  -------         ENDDO         
  C:160CH         LINE#         74
  C:1616H         LINE#         75
  C:1616H         LINE#         77
  C:1618H         LINE#         78
  C:161FH         LINE#         79
  C:162DH         LINE#         80
  C:164CH         LINE#         82
  C:164EH         LINE#         83
  C:1652H         LINE#         84
  -------         ENDPROC       _NRF24L01_WRITE_BUF
  -------         PROC          _NRF24L01_TXPACKET
  D:0001H         SYMBOL        txbuf
  -------         DO            
  X:0025H         SYMBOL        sta
  -------         ENDDO         
  C:19C9H         LINE#         88
  C:19C9H         LINE#         89
  C:19C9H         LINE#         92
  C:19CBH         LINE#         93
  C:19D5H         LINE#         94
  C:19D7H         LINE#         96
  C:19E1H         LINE#         97
  C:19E6H         LINE#         98
  C:19ECH         LINE#         99
  C:19ECH         LINE#         100
  C:19F3H         LINE#         101
  C:19F6H         LINE#         102
  C:19F6H         LINE#         103
  C:19FCH         LINE#         104
  C:19FCH         LINE#         105
  C:19FFH         LINE#         106
  C:19FFH         LINE#         107
  C:1A01H         LINE#         108
  -------         ENDPROC       _NRF24L01_TXPACKET
  -------         PROC          _NRF24L01_RXPACKET
  X:0026H         SYMBOL        rxbuf
  -------         DO            
  X:0029H         SYMBOL        sta
  -------         ENDDO         
  C:18D1H         LINE#         112
  C:18DBH         LINE#         113
  C:18DBH         LINE#         116
  C:18E5H         LINE#         117
  C:18EAH         LINE#         118
  C:18F0H         LINE#         119
  C:18F0H         LINE#         120
  C:1904H         LINE#         121
  C:190BH         LINE#         122
  C:190EH         LINE#         123
BL51 BANKED LINKER/LOCATER V6.22                                                      08/30/2015  19:47:02  PAGE 14


  C:190EH         LINE#         124
  C:1910H         LINE#         125
  -------         ENDPROC       _NRF24L01_RXPACKET
  -------         PROC          RX_MODE
  C:1A39H         LINE#         129
  C:1A39H         LINE#         130
  C:1A39H         LINE#         131
  C:1A3BH         LINE#         132
  C:1A3EH         LINE#         134
  C:1A45H         LINE#         135
  C:1A4CH         LINE#         136
  C:1A53H         LINE#         137
  C:1A5AH         LINE#         138
  C:1A61H         LINE#         139
  C:1A68H         LINE#         140
  C:1A6AH         LINE#         142
  -------         ENDPROC       RX_MODE
  -------         PROC          TX_MODE
  C:184DH         LINE#         148
  C:184DH         LINE#         149
  C:184DH         LINE#         150
  C:184FH         LINE#         151
  C:185FH         LINE#         152
  C:1862H         LINE#         154
  C:1869H         LINE#         155
  C:1870H         LINE#         156
  C:1877H         LINE#         157
  C:187EH         LINE#         158
  C:1885H         LINE#         159
  C:188CH         LINE#         160
  C:188EH         LINE#         162
  -------         ENDPROC       TX_MODE
  -------         ENDMOD        NRF24L01

  -------         MODULE        OLED
  C:0000H         SYMBOL        _ICE_DUMMY_
  C:1C6BH         PUBLIC        _My_pow
  D:0080H         PUBLIC        P0
  D:0090H         PUBLIC        P1
  D:00A0H         PUBLIC        P2
  D:00B0H         PUBLIC        P3
  D:00A8H         PUBLIC        IE
  C:1B09H         PUBLIC        _Write_Com
  B:00A0H.4       PUBLIC        LCD_SDE
  C:121DH         PUBLIC        _Show_Num_f8x16
  B:00A0H.5       PUBLIC        LCD_SCL
  D:00B8H         PUBLIC        IP
  C:10E8H         PUBLIC        OLED_Init
  C:1950H         PUBLIC        OLED_Test
  C:14B8H         PUBLIC        _Show_f6x8str
  B:00A0H.7       PUBLIC        LCD_RST
  D:0098H         PUBLIC        SCON
  D:0088H         PUBLIC        TCON
  B:00A0H.6       PUBLIC        LCD_DC
  C:1DDEH         PUBLIC        LCD_Fill
  C:1BDAH         PUBLIC        _Set_Pos
  C:152DH         PUBLIC        _Show_Chinese
BL51 BANKED LINKER/LOCATER V6.22                                                      08/30/2015  19:47:02  PAGE 15


  B:00A0H.3       PUBLIC        LCD_CS
  C:1DF5H         PUBLIC        LCD_Cls
  C:1187H         PUBLIC        _Show_f8x16str
  C:159DH         PUBLIC        _Show_Num_f6x8
  C:100CH         PUBLIC        _Show_Picture
  D:00C8H         PUBLIC        T2CON
  C:1B37H         PUBLIC        _Write_Data
  D:00D0H         PUBLIC        PSW
  -------         PROC          OLED_TEST
  -------         DO            
  X:0034H         SYMBOL        i
  -------         ENDDO         
  C:1950H         LINE#         3
  C:1950H         LINE#         4
  C:1950H         LINE#         6
  C:1954H         LINE#         7
  C:196DH         LINE#         9
  C:1972H         LINE#         10
  C:198DH         LINE#         11
  -------         ENDPROC       OLED_TEST
  C:1AFCH         SYMBOL        L?0119
  C:1B04H         SYMBOL        L?0120
  -------         PROC          L?0118
  -------         ENDPROC       L?0118
  C:1AFCH         SYMBOL        L?0119
  C:1B04H         SYMBOL        L?0120
  -------         PROC          _WRITE_COM
  D:0007H         SYMBOL        com
  -------         DO            
  D:0006H         SYMBOL        i
  -------         ENDDO         
  C:1B09H         LINE#         13
  C:1B09H         LINE#         14
  C:1B09H         LINE#         16
  C:1B0BH         LINE#         18
  C:1B0DH         LINE#         19
  C:1B0DH         LINE#         20
  C:1B0FH         LINE#         21
  C:1B1CH         LINE#         22
  C:1B20H         LINE#         24
  C:1B22H         LINE#         25
  C:1B24H         LINE#         26
  C:1B29H         LINE#         27
  -------         ENDPROC       _WRITE_COM
  C:1B2AH         SYMBOL        L?0116
  C:1B32H         SYMBOL        L?0117
  -------         PROC          L?0115
  -------         ENDPROC       L?0115
  C:1B2AH         SYMBOL        L?0116
  C:1B32H         SYMBOL        L?0117
  -------         PROC          _WRITE_DATA
  D:0007H         SYMBOL        date
  -------         DO            
  D:0006H         SYMBOL        i
  -------         ENDDO         
  C:1B37H         LINE#         28
  C:1B37H         LINE#         29
BL51 BANKED LINKER/LOCATER V6.22                                                      08/30/2015  19:47:02  PAGE 16


  C:1B37H         LINE#         31
  C:1B39H         LINE#         33
  C:1B3BH         LINE#         34
  C:1B3BH         LINE#         35
  C:1B3DH         LINE#         36
  C:1B4AH         LINE#         37
  C:1B4EH         LINE#         39
  C:1B50H         LINE#         40
  C:1B52H         LINE#         41
  C:1B57H         LINE#         42
  -------         ENDPROC       _WRITE_DATA
  C:1BD5H         SYMBOL        L?0122
  -------         PROC          L?0121
  -------         ENDPROC       L?0121
  C:1BD5H         SYMBOL        L?0122
  -------         PROC          _SET_POS
  D:0004H         SYMBOL        x
  D:0005H         SYMBOL        y
  C:1BDAH         LINE#         43
  C:1BDCH         LINE#         44
  C:1BDCH         LINE#         45
  C:1BE3H         LINE#         46
  C:1BEFH         LINE#         47
  -------         ENDPROC       _SET_POS
  -------         PROC          LCD_FILL
  -------         DO            
  D:0005H         SYMBOL        y
  D:0004H         SYMBOL        x
  -------         ENDDO         
  C:1DDEH         LINE#         49
  C:1DDEH         LINE#         50
  C:1DDEH         LINE#         52
  C:1DE0H         LINE#         53
  C:1DE0H         LINE#         54
  C:1DE0H         LINE#         55
  C:1DE0H         LINE#         56
  C:1DE3H         LINE#         57
  C:1DE5H         LINE#         58
  C:1DEFH         LINE#         59
  C:1DF4H         LINE#         60
  -------         ENDPROC       LCD_FILL
  -------         PROC          LCD_CLS
  -------         DO            
  D:0005H         SYMBOL        y
  D:0004H         SYMBOL        x
  -------         ENDDO         
  C:1DF5H         LINE#         61
  C:1DF5H         LINE#         62
  C:1DF5H         LINE#         64
  C:1DF7H         LINE#         65
  C:1DF7H         LINE#         66
  C:1DF7H         LINE#         67
  C:1DF7H         LINE#         68
  C:1DFAH         LINE#         69
  C:1DFCH         LINE#         70
  C:1E06H         LINE#         71
  C:1E0BH         LINE#         72
BL51 BANKED LINKER/LOCATER V6.22                                                      08/30/2015  19:47:02  PAGE 17


  -------         ENDPROC       LCD_CLS
  -------         PROC          OLED_INIT
  C:10E8H         LINE#         73
  C:10E8H         LINE#         74
  C:10E8H         LINE#         75
  C:10EAH         LINE#         76
  C:10ECH         LINE#         78
  C:10EEH         LINE#         79
  C:10F5H         LINE#         80
  C:10F7H         LINE#         84
  C:10FCH         LINE#         85
  C:10FEH         LINE#         86
  C:1101H         LINE#         87
  C:1106H         LINE#         89
  C:110BH         LINE#         90
  C:1110H         LINE#         92
  C:1115H         LINE#         93
  C:111AH         LINE#         94
  C:111FH         LINE#         96
  C:1124H         LINE#         97
  C:1129H         LINE#         98
  C:112EH         LINE#         99
  C:1133H         LINE#         101
  C:1138H         LINE#         102
  C:113DH         LINE#         104
  C:1142H         LINE#         105
  C:1147H         LINE#         107
  C:114CH         LINE#         108
  C:1151H         LINE#         109
  C:1156H         LINE#         110
  C:115BH         LINE#         111
  C:1160H         LINE#         112
  C:1165H         LINE#         113
  C:116AH         LINE#         114
  C:116FH         LINE#         115
  C:1174H         LINE#         116
  C:1179H         LINE#         117
  C:117EH         LINE#         118
  C:1181H         LINE#         119
  -------         ENDPROC       OLED_INIT
  -------         PROC          _SHOW_F6X8STR
  X:0035H         SYMBOL        x
  X:0036H         SYMBOL        y
  X:0037H         SYMBOL        ch
  -------         DO            
  X:003AH         SYMBOL        c
  D:0005H         SYMBOL        i
  X:003BH         SYMBOL        j
  -------         ENDDO         
  C:14B8H         LINE#         123
  C:14C8H         LINE#         124
  C:14C8H         LINE#         125
  C:14CDH         LINE#         126
  C:14E4H         LINE#         127
  C:14E4H         LINE#         128
  C:14E9H         LINE#         129
  C:14F7H         LINE#         130
BL51 BANKED LINKER/LOCATER V6.22                                                      08/30/2015  19:47:02  PAGE 18


  C:14FCH         LINE#         131
  C:14FEH         LINE#         132
  C:151FH         LINE#         133
  C:1525H         LINE#         134
  C:152AH         LINE#         135
  C:152CH         LINE#         136
  -------         ENDPROC       _SHOW_F6X8STR
  -------         PROC          L?0123
  -------         ENDPROC       L?0123
  -------         PROC          _MY_POW
  X:003CH         SYMBOL        m
  D:0001H         SYMBOL        n
  -------         DO            
  D:0006H         SYMBOL        result
  -------         ENDDO         
  C:1C6BH         LINE#         138
  C:1C71H         LINE#         139
  C:1C71H         LINE#         140
  C:1C75H         LINE#         141
  C:1C86H         LINE#         142
  C:1C86H         LINE#         143
  -------         ENDPROC       _MY_POW
  -------         PROC          _SHOW_NUM_F8X16
  X:003DH         SYMBOL        x
  X:003EH         SYMBOL        y
  X:003FH         SYMBOL        num
  X:0041H         SYMBOL        len
  -------         DO            
  D:0002H         SYMBOL        temp
  D:0003H         SYMBOL        t
  D:0005H         SYMBOL        i
  -------         ENDDO         
  C:121DH         LINE#         145
  C:122AH         LINE#         146
  C:122AH         LINE#         148
  C:1235H         LINE#         149
  C:1235H         LINE#         150
  C:124FH         LINE#         152
  C:1254H         LINE#         153
  C:1256H         LINE#         154
  C:1275H         LINE#         155
  C:1280H         LINE#         156
  C:1282H         LINE#         157
  C:12A1H         LINE#         158
  C:12A7H         LINE#         159
  C:12ABH         LINE#         160
  -------         ENDPROC       _SHOW_NUM_F8X16
  -------         PROC          _SHOW_NUM_F6X8
  X:0042H         SYMBOL        x
  X:0043H         SYMBOL        y
  X:0044H         SYMBOL        num
  X:0046H         SYMBOL        len
  -------         DO            
  D:0002H         SYMBOL        temp
  D:0003H         SYMBOL        t
  D:0005H         SYMBOL        i
  -------         ENDDO         
BL51 BANKED LINKER/LOCATER V6.22                                                      08/30/2015  19:47:02  PAGE 19


  C:159DH         LINE#         163
  C:15AAH         LINE#         164
  C:15AAH         LINE#         166
  C:15B5H         LINE#         167
  C:15B5H         LINE#         168
  C:15CFH         LINE#         170
  C:15D4H         LINE#         171
  C:15D6H         LINE#         172
  C:15F5H         LINE#         173
  C:15FBH         LINE#         174
  C:15FEH         LINE#         175
  -------         ENDPROC       _SHOW_NUM_F6X8
  -------         PROC          _SHOW_F8X16STR
  X:0072H         SYMBOL        x
  X:0073H         SYMBOL        y
  X:0074H         SYMBOL        ch
  -------         DO            
  X:0077H         SYMBOL        c
  D:0005H         SYMBOL        i
  X:0078H         SYMBOL        j
  -------         ENDDO         
  C:1187H         LINE#         177
  C:1197H         LINE#         178
  C:1197H         LINE#         179
  C:119CH         LINE#         181
  C:11B3H         LINE#         182
  C:11B3H         LINE#         183
  C:11B8H         LINE#         186
  C:11BDH         LINE#         187
  C:11BFH         LINE#         188
  C:11E0H         LINE#         189
  C:11EBH         LINE#         190
  C:11EDH         LINE#         191
  C:120EH         LINE#         192
  C:1214H         LINE#         193
  C:1219H         LINE#         194
  C:121CH         LINE#         195
  -------         ENDPROC       _SHOW_F8X16STR
  -------         PROC          _SHOW_CHINESE
  X:0047H         SYMBOL        x
  D:0001H         SYMBOL        y
  D:0003H         SYMBOL        N
  -------         DO            
  D:0005H         SYMBOL        i
  D:0002H         SYMBOL        adder
  -------         ENDDO         
  C:152DH         LINE#         199
  C:1533H         LINE#         200
  C:1533H         LINE#         202
  C:153BH         LINE#         203
  C:1540H         LINE#         204
  C:1542H         LINE#         205
  C:1542H         LINE#         206
  C:1545H         LINE#         207
  C:154AH         LINE#         208
  C:154FH         LINE#         209
  C:1559H         LINE#         210
BL51 BANKED LINKER/LOCATER V6.22                                                      08/30/2015  19:47:02  PAGE 20


  C:155BH         LINE#         211
  C:155BH         LINE#         212
  C:155EH         LINE#         213
  C:1563H         LINE#         214
  C:1568H         LINE#         215
  C:1573H         LINE#         216
  C:1575H         LINE#         217
  C:1575H         LINE#         218
  C:1578H         LINE#         219
  C:157DH         LINE#         220
  C:1582H         LINE#         221
  C:158DH         LINE#         222
  C:158FH         LINE#         223
  C:158FH         LINE#         224
  C:1592H         LINE#         225
  C:1597H         LINE#         226
  C:159CH         LINE#         227
  -------         ENDPROC       _SHOW_CHINESE
  -------         PROC          _SHOW_PICTURE
  X:0048H         SYMBOL        Long
  X:0049H         SYMBOL        pp
  X:004CH         SYMBOL        EN
  -------         DO            
  X:004DH         SYMBOL        y
  X:004EH         SYMBOL        x
  X:004FH         SYMBOL        null
  -------         ENDDO         
  C:100CH         LINE#         230
  C:101AH         LINE#         231
  C:101AH         LINE#         234
  C:1029H         LINE#         235
  C:1039H         LINE#         236
  C:1039H         LINE#         237
  C:103AH         LINE#         238
  C:103AH         LINE#         239
  C:103DH         LINE#         241
  C:104BH         LINE#         242
  C:104BH         LINE#         243
  C:1050H         LINE#         244
  C:1054H         LINE#         245
  C:1059H         LINE#         246
  C:1060H         LINE#         248
  C:107EH         LINE#         249
  C:107EH         LINE#         250
  C:1085H         LINE#         251
  C:1099H         LINE#         253
  C:10B0H         LINE#         254
  C:10B7H         LINE#         255
  C:10CAH         LINE#         256
  C:10CAH         LINE#         257
  C:10CFH         LINE#         258
  C:10D3H         LINE#         259
  C:10D8H         LINE#         260
  C:10DFH         LINE#         261
  C:10E7H         LINE#         262
  -------         ENDPROC       _SHOW_PICTURE
  -------         ENDMOD        OLED
BL51 BANKED LINKER/LOCATER V6.22                                                      08/30/2015  19:47:02  PAGE 21



  -------         MODULE        UART
  C:0000H         SYMBOL        _ICE_DUMMY_
  D:0080H         PUBLIC        P0
  D:0090H         PUBLIC        P1
  D:00A0H         PUBLIC        P2
  D:00B0H         PUBLIC        P3
  B:00A8H.7       PUBLIC        EA
  D:00A8H         PUBLIC        IE
  C:1B58H         PUBLIC        _Uart_Init
  B:00A8H.4       PUBLIC        ES
  D:00B8H         PUBLIC        IP
  B:0098H.0       PUBLIC        RI
  B:0098H.1       PUBLIC        TI
  C:188FH         PUBLIC        Uart
  D:0099H         PUBLIC        SBUF
  D:0087H         PUBLIC        PCON
  D:0098H         PUBLIC        SCON
  D:0089H         PUBLIC        TMOD
  D:0088H         PUBLIC        TCON
  C:1EC8H         PUBLIC        _UartSentChar
  C:0EF7H         PUBLIC        _Uart_SendNum
  C:1E8AH         SYMBOL        _?ix1000
  D:008DH         PUBLIC        TH1
  D:008BH         PUBLIC        TL1
  B:0088H.6       PUBLIC        TR1
  C:1E0CH         PUBLIC        _UartSendStr
  D:00C8H         PUBLIC        T2CON
  D:00D0H         PUBLIC        PSW
  -------         PROC          _UART_INIT
  D:0006H         SYMBOL        bound
  C:1B58H         LINE#         3
  C:1B58H         LINE#         4
  C:1B58H         LINE#         5
  C:1B5AH         LINE#         7
  C:1B5DH         LINE#         8
  C:1B60H         LINE#         9
  C:1B63H         LINE#         10
  C:1B7DH         LINE#         12
  C:1B7FH         LINE#         14
  C:1B81H         LINE#         23
  -------         ENDPROC       _UART_INIT
  -------         PROC          UART
  -------         DO            
  D:0007H         SYMBOL        temp
  -------         ENDDO         
  C:188FH         LINE#         25
  C:18ACH         LINE#         28
  C:18AFH         LINE#         29
  C:18AFH         LINE#         30
  C:18B1H         LINE#         31
  C:18B3H         LINE#         32
  C:18B6H         LINE#         35
  C:18B6H         LINE#         36
  -------         ENDPROC       UART
  -------         PROC          _UARTSENTCHAR
  D:0007H         SYMBOL        ch
BL51 BANKED LINKER/LOCATER V6.22                                                      08/30/2015  19:47:02  PAGE 22


  C:1EC8H         LINE#         39
  C:1EC8H         LINE#         40
  C:1EC8H         LINE#         41
  C:1ECAH         LINE#         42
  C:1ECDH         LINE#         43
  C:1ECFH         LINE#         44
  -------         ENDPROC       _UARTSENTCHAR
  -------         PROC          _UARTSENDSTR
  D:0001H         SYMBOL        ch
  C:1E0CH         LINE#         46
  C:1E0CH         LINE#         47
  C:1E0CH         LINE#         48
  C:1E12H         LINE#         49
  C:1E12H         LINE#         50
  C:1E15H         LINE#         51
  C:1E1CH         LINE#         52
  C:1E1EH         LINE#         53
  -------         ENDPROC       _UARTSENDSTR
  -------         PROC          _UART_SENDNUM
  X:0050H         SYMBOL        num
  -------         DO            
  X:0052H         SYMBOL        ch
  -------         ENDDO         
  C:0EF7H         LINE#         55
  C:0EFEH         LINE#         56
  C:0EFEH         LINE#         57
  C:0F10H         LINE#         59
  C:0F1FH         LINE#         60
  C:0F1FH         LINE#         61
  C:0F23H         LINE#         62
  C:0F2FH         LINE#         63
  C:0F31H         LINE#         65
  C:0F36H         LINE#         67
  C:0F54H         LINE#         68
  C:0F84H         LINE#         69
  C:0FA8H         LINE#         70
  C:0FC6H         LINE#         71
  C:0FEAH         LINE#         72
  C:0FFBH         LINE#         74
  C:1004H         LINE#         75
  -------         ENDPROC       _UART_SENDNUM
  -------         ENDMOD        UART

  -------         MODULE        MYIIC
  C:0000H         SYMBOL        _ICE_DUMMY_
  D:0080H         PUBLIC        P0
  D:0090H         PUBLIC        P1
  D:00A0H         PUBLIC        P2
  D:00B0H         PUBLIC        P3
  D:00A8H         PUBLIC        IE
  B:00A0H.1       PUBLIC        IIC_SDA
  C:1EB3H         PUBLIC        IIC_NAck
  B:00A0H.0       PUBLIC        IIC_SCL
  D:00B8H         PUBLIC        IP
  C:1D0DH         PUBLIC        _Device_Read_Byte
  C:1C1DH         PUBLIC        _IIC_Read_Byte
  D:0098H         PUBLIC        SCON
BL51 BANKED LINKER/LOCATER V6.22                                                      08/30/2015  19:47:02  PAGE 23


  D:0088H         PUBLIC        TCON
  C:1E31H         PUBLIC        _Device_Write_Byte
  C:1CA9H         PUBLIC        _IIC_Send_Byte
  C:1B8FH         PUBLIC        IIC_Wait_Ack
  C:1EA8H         PUBLIC        IIC_Ack
  C:1E92H         PUBLIC        IIC_Start
  C:1EDFH         PUBLIC        IIC_Init
  C:1E9DH         PUBLIC        IIC_Stop
  D:00C8H         PUBLIC        T2CON
  D:00D0H         PUBLIC        PSW
  -------         PROC          IIC_INIT
  C:1EDFH         LINE#         4
  C:1EDFH         LINE#         5
  C:1EDFH         LINE#         6
  C:1EE1H         LINE#         7
  C:1EE3H         LINE#         8
  -------         ENDPROC       IIC_INIT
  -------         PROC          IIC_START
  C:1E92H         LINE#         12
  C:1E92H         LINE#         13
  C:1E92H         LINE#         15
  C:1E94H         LINE#         16
  C:1E96H         LINE#         18
  C:1E97H         LINE#         19
  C:1E99H         LINE#         21
  C:1E9AH         LINE#         22
  C:1E9CH         LINE#         23
  -------         ENDPROC       IIC_START
  -------         PROC          IIC_STOP
  C:1E9DH         LINE#         25
  C:1E9DH         LINE#         26
  C:1E9DH         LINE#         28
  C:1E9FH         LINE#         29
  C:1EA1H         LINE#         31
  C:1EA2H         LINE#         32
  C:1EA4H         LINE#         33
  C:1EA6H         LINE#         35
  C:1EA7H         LINE#         36
  -------         ENDPROC       IIC_STOP
  -------         PROC          L?0023
  -------         ENDPROC       L?0023
  -------         PROC          IIC_WAIT_ACK
  -------         DO            
  D:0007H         SYMBOL        ucErrTime
  -------         ENDDO         
  C:1B8FH         LINE#         40
  C:1B8FH         LINE#         41
  C:1B8FH         LINE#         42
  C:1B91H         LINE#         43
  C:1B93H         LINE#         44
  C:1B94H         LINE#         45
  C:1B96H         LINE#         46
  C:1B97H         LINE#         48
  C:1B9AH         LINE#         49
  C:1B9AH         LINE#         50
  C:1B9BH         LINE#         51
  C:1BA1H         LINE#         52
BL51 BANKED LINKER/LOCATER V6.22                                                      08/30/2015  19:47:02  PAGE 24


  C:1BA1H         LINE#         53
  C:1BA4H         LINE#         54
  C:1BA7H         LINE#         55
  C:1BA7H         LINE#         56
  C:1BA7H         LINE#         57
  C:1BA9H         LINE#         58
  C:1BABH         LINE#         59
  -------         ENDPROC       IIC_WAIT_ACK
  -------         PROC          IIC_ACK
  C:1EA8H         LINE#         61
  C:1EA8H         LINE#         62
  C:1EA8H         LINE#         63
  C:1EAAH         LINE#         65
  C:1EACH         LINE#         67
  C:1EADH         LINE#         68
  C:1EAFH         LINE#         70
  C:1EB0H         LINE#         71
  C:1EB2H         LINE#         72
  -------         ENDPROC       IIC_ACK
  -------         PROC          IIC_NACK
  C:1EB3H         LINE#         74
  C:1EB3H         LINE#         75
  C:1EB3H         LINE#         76
  C:1EB5H         LINE#         78
  C:1EB7H         LINE#         80
  C:1EB8H         LINE#         81
  C:1EBAH         LINE#         83
  C:1EBBH         LINE#         84
  C:1EBDH         LINE#         85
  -------         ENDPROC       IIC_NACK
  -------         PROC          _IIC_SEND_BYTE
  D:0007H         SYMBOL        txd
  -------         DO            
  D:0006H         SYMBOL        t
  -------         ENDDO         
  C:1CA9H         LINE#         90
  C:1CA9H         LINE#         91
  C:1CA9H         LINE#         94
  C:1CABH         LINE#         95
  C:1CADH         LINE#         96
  C:1CADH         LINE#         97
  C:1CBAH         LINE#         98
  C:1CBEH         LINE#         100
  C:1CBFH         LINE#         101
  C:1CC1H         LINE#         103
  C:1CC2H         LINE#         104
  C:1CC4H         LINE#         106
  C:1CC5H         LINE#         107
  C:1CCAH         LINE#         108
  -------         ENDPROC       _IIC_SEND_BYTE
  -------         PROC          _IIC_READ_BYTE
  D:0007H         SYMBOL        ack
  -------         DO            
  D:0005H         SYMBOL        i
  D:0006H         SYMBOL        receive
  -------         ENDDO         
  C:1C1DH         LINE#         110
BL51 BANKED LINKER/LOCATER V6.22                                                      08/30/2015  19:47:02  PAGE 25


  C:1C1DH         LINE#         111
  C:1C1DH         LINE#         112
  C:1C1FH         LINE#         114
  C:1C20H         LINE#         115
  C:1C20H         LINE#         116
  C:1C22H         LINE#         118
  C:1C23H         LINE#         119
  C:1C25H         LINE#         120
  C:1C29H         LINE#         121
  C:1C2DH         LINE#         123
  C:1C2EH         LINE#         124
  C:1C33H         LINE#         125
  C:1C36H         LINE#         126
  C:1C3BH         LINE#         128
  C:1C3EH         LINE#         129
  C:1C40H         LINE#         130
  -------         ENDPROC       _IIC_READ_BYTE
  -------         PROC          _DEVICE_WRITE_BYTE
  D:0007H         SYMBOL        DevAdd
  D:0004H         SYMBOL        add
  D:0003H         SYMBOL        dat
  C:1E31H         LINE#         132
  C:1E33H         LINE#         133
  C:1E33H         LINE#         134
  C:1E36H         LINE#         135
  C:1E39H         LINE#         136
  C:1E3CH         LINE#         138
  C:1E3CH         LINE#         139
  C:1E3CH         LINE#         141
  C:1E3CH         LINE#         142
  C:1E3FH         LINE#         144
  -------         ENDPROC       _DEVICE_WRITE_BYTE
  -------         PROC          _DEVICE_READ_BYTE
  D:0004H         SYMBOL        DevAdd
  D:0003H         SYMBOL        add
  -------         DO            
  D:0007H         SYMBOL        IIC_DATA
  -------         ENDDO         
  C:1D0DH         LINE#         148
  C:1D11H         LINE#         149
  C:1D11H         LINE#         150
  C:1D13H         LINE#         151
  C:1D16H         LINE#         152
  C:1D16H         LINE#         153
  C:1D16H         LINE#         154
  C:1D16H         LINE#         155
  C:1D19H         LINE#         157
  C:1D1CH         LINE#         158
  C:1D22H         LINE#         159
  C:1D25H         LINE#         161
  C:1D2AH         LINE#         162
  C:1D2DH         LINE#         163
  C:1D2DH         LINE#         164
  -------         ENDPROC       _DEVICE_READ_BYTE
  -------         ENDMOD        MYIIC

  -------         MODULE        MPU6050
BL51 BANKED LINKER/LOCATER V6.22                                                      08/30/2015  19:47:02  PAGE 26


  C:0000H         SYMBOL        _ICE_DUMMY_
  D:0080H         PUBLIC        P0
  D:0090H         PUBLIC        P1
  D:00A0H         PUBLIC        P2
  D:00B0H         PUBLIC        P3
  D:00A8H         PUBLIC        IE
  C:173AH         PUBLIC        MPU6050_Read_All_Dat
  D:00B8H         PUBLIC        IP
  D:0098H         PUBLIC        SCON
  D:0088H         PUBLIC        TCON
  C:1A02H         PUBLIC        MPU6050_Init
  C:1780H         PUBLIC        MPU6050_Test
  D:00C8H         PUBLIC        T2CON
  D:00D0H         PUBLIC        PSW
  -------         PROC          MPU6050_TEST
  -------         DO            
  X:005AH         SYMBOL        temp
  -------         ENDDO         
  C:1780H         LINE#         3
  C:1780H         LINE#         4
  C:1780H         LINE#         5
  C:1784H         LINE#         6
  C:178FH         LINE#         8
  C:1795H         LINE#         9
  C:1795H         LINE#         10
  C:1799H         LINE#         11
  C:1799H         LINE#         12
  C:1799H         LINE#         13
  C:179BH         LINE#         15
  C:179BH         LINE#         16
  C:17A5H         LINE#         17
  C:17B2H         LINE#         18
  C:17C4H         LINE#         19
  C:17C4H         LINE#         20
  -------         ENDPROC       MPU6050_TEST
  -------         PROC          MPU6050_INIT
  C:1A02H         LINE#         22
  C:1A02H         LINE#         23
  C:1A02H         LINE#         24
  C:1A05H         LINE#         25
  C:1A0EH         LINE#         26
  C:1A17H         LINE#         27
  C:1A20H         LINE#         28
  C:1A29H         LINE#         29
  C:1A32H         LINE#         30
  -------         ENDPROC       MPU6050_INIT
  -------         PROC          MPU6050_READ_ALL_DAT
  -------         DO            
  X:005BH         SYMBOL        i
  -------         ENDDO         
  C:173AH         LINE#         33
  C:173AH         LINE#         34
  C:173AH         LINE#         36
  C:173DH         LINE#         37
  C:1742H         LINE#         38
  C:1745H         LINE#         39
  C:174AH         LINE#         40
BL51 BANKED LINKER/LOCATER V6.22                                                      08/30/2015  19:47:02  PAGE 27


  C:174DH         LINE#         42
  C:1750H         LINE#         43
  C:1755H         LINE#         44
  C:1758H         LINE#         46
  C:175CH         LINE#         47
  C:175CH         LINE#         48
  C:1769H         LINE#         49
  C:1774H         LINE#         50
  C:177DH         LINE#         52
  -------         ENDPROC       MPU6050_READ_ALL_DAT
  -------         ENDMOD        MPU6050

  -------         MODULE        KEY
  C:0000H         SYMBOL        _ICE_DUMMY_
  D:0080H         PUBLIC        P0
  D:0090H         PUBLIC        P1
  D:00A0H         PUBLIC        P2
  D:00B0H         PUBLIC        P3
  D:00A8H         PUBLIC        IE
  D:00B8H         PUBLIC        IP
  B:0080H.0       PUBLIC        KEY1
  B:0080H.1       PUBLIC        KEY2
  C:1D2EH         PUBLIC        KeyScan
  D:0098H         PUBLIC        SCON
  D:0088H         PUBLIC        TCON
  D:00C8H         PUBLIC        T2CON
  D:00D0H         PUBLIC        PSW
  -------         PROC          KEYSCAN
  C:1D2EH         LINE#         7
  C:1D2EH         LINE#         8
  C:1D2EH         LINE#         9
  C:1D33H         LINE#         10
  C:1D33H         LINE#         11
  C:1D3AH         LINE#         12
  C:1D3DH         LINE#         13
  C:1D40H         LINE#         15
  C:1D43H         LINE#         16
  C:1D46H         LINE#         18
  C:1D46H         LINE#         20
  C:1D48H         LINE#         21
  -------         ENDPROC       KEYSCAN
  -------         ENDMOD        KEY

  -------         MODULE        FLASH
  C:0000H         SYMBOL        _ICE_DUMMY_
  D:0080H         PUBLIC        P0
  D:0090H         PUBLIC        P1
  D:00A0H         PUBLIC        P2
  D:00B0H         PUBLIC        P3
  C:13BDH         PUBLIC        _SPI_Flash_Write_Page
  D:00A8H         PUBLIC        IE
  D:00B8H         PUBLIC        IP
  C:1338H         PUBLIC        _SPI_Flash_Read
  C:198EH         PUBLIC        SPI_Flash_ReadID
  B:0090H.6       PUBLIC        SPI_FLASH_CS
  D:0098H         PUBLIC        SCON
  D:0088H         PUBLIC        TCON
BL51 BANKED LINKER/LOCATER V6.22                                                      08/30/2015  19:47:02  PAGE 28


  C:1ED0H         PUBLIC        SPI_Flash_Wait_Busy
  C:1E52H         PUBLIC        SPI_Flash_ReadSR
  C:1EBEH         PUBLIC        SPI_FLASH_Write_Enable
  D:00C8H         PUBLIC        T2CON
  C:17C5H         PUBLIC        FLASH_Test
  D:00D0H         PUBLIC        PSW
  -------         PROC          FLASH_TEST
  -------         DO            
  X:005CH         SYMBOL        temp
  -------         ENDDO         
  C:17C5H         LINE#         3
  C:17C5H         LINE#         4
  C:17C5H         LINE#         6
  C:17CFH         LINE#         7
  C:17D5H         LINE#         8
  C:17D5H         LINE#         9
  C:17DBH         LINE#         11
  C:17DDH         LINE#         12
  C:17E9H         LINE#         13
  C:17F6H         LINE#         14
  -------         ENDPROC       FLASH_TEST
  -------         PROC          SPI_FLASH_READID
  -------         DO            
  X:005EH         SYMBOL        Temp
  -------         ENDDO         
  C:198EH         LINE#         19
  C:198EH         LINE#         20
  C:198EH         LINE#         22
  C:1990H         LINE#         23
  C:1995H         LINE#         24
  C:199AH         LINE#         25
  C:199FH         LINE#         26
  C:19A4H         LINE#         29
  C:19B2H         LINE#         30
  C:19C6H         LINE#         33
  C:19C8H         LINE#         34
  C:19C8H         LINE#         35
  -------         ENDPROC       SPI_FLASH_READID
  -------         PROC          _SPI_FLASH_WRITE_PAGE
  X:0060H         SYMBOL        pBuffer
  X:0063H         SYMBOL        WriteAddr
  X:0065H         SYMBOL        NumByteToWrite
  -------         DO            
  X:0067H         SYMBOL        i
  -------         ENDDO         
  C:13BDH         LINE#         37
  C:13CDH         LINE#         38
  C:13CDH         LINE#         40
  C:13D0H         LINE#         41
  C:13D2H         LINE#         42
  C:13D7H         LINE#         43
  C:13EAH         LINE#         44
  C:13F1H         LINE#         45
  C:13F9H         LINE#         46
  C:1418H         LINE#         47
  C:143AH         LINE#         49
  C:143CH         LINE#         50
BL51 BANKED LINKER/LOCATER V6.22                                                      08/30/2015  19:47:02  PAGE 29


  -------         ENDPROC       _SPI_FLASH_WRITE_PAGE
  -------         PROC          SPI_FLASH_WRITE_ENABLE
  C:1EBEH         LINE#         53
  C:1EBEH         LINE#         54
  C:1EBEH         LINE#         55
  C:1EC0H         LINE#         56
  C:1EC5H         LINE#         57
  C:1EC7H         LINE#         58
  -------         ENDPROC       SPI_FLASH_WRITE_ENABLE
  -------         PROC          SPI_FLASH_WAIT_BUSY
  C:1ED0H         LINE#         61
  C:1ED0H         LINE#         62
  C:1ED0H         LINE#         63
  C:1ED7H         LINE#         64
  -------         ENDPROC       SPI_FLASH_WAIT_BUSY
  -------         PROC          SPI_FLASH_READSR
  -------         DO            
  D:0007H         SYMBOL        byte
  -------         ENDDO         
  C:1E52H         LINE#         66
  C:1E52H         LINE#         67
  C:1E52H         LINE#         68
  C:1E53H         LINE#         69
  C:1E55H         LINE#         70
  C:1E5AH         LINE#         71
  C:1E5FH         LINE#         72
  C:1E61H         LINE#         73
  C:1E61H         LINE#         74
  -------         ENDPROC       SPI_FLASH_READSR
  -------         PROC          _SPI_FLASH_READ
  X:0069H         SYMBOL        pBuffer
  X:006CH         SYMBOL        ReadAddr
  X:006EH         SYMBOL        NumByteToRead
  -------         DO            
  X:0070H         SYMBOL        i
  -------         ENDDO         
  C:1338H         LINE#         76
  C:1348H         LINE#         77
  C:1348H         LINE#         79
  C:134AH         LINE#         80
  C:134FH         LINE#         81
  C:1362H         LINE#         82
  C:1369H         LINE#         83
  C:1371H         LINE#         84
  C:1390H         LINE#         85
  C:1390H         LINE#         86
  C:13ADH         LINE#         87
  C:13BAH         LINE#         88
  C:13BCH         LINE#         89
  -------         ENDPROC       _SPI_FLASH_READ
  -------         ENDMOD        FLASH

  -------         MODULE        ?C?COPY
  C:0CFEH         PUBLIC        ?C?COPY
  -------         ENDMOD        ?C?COPY

  -------         MODULE        ?C?CLDPTR
BL51 BANKED LINKER/LOCATER V6.22                                                      08/30/2015  19:47:02  PAGE 30


  C:0D24H         PUBLIC        ?C?CLDPTR
  -------         ENDMOD        ?C?CLDPTR

  -------         MODULE        ?C?CLDOPTR
  C:0D3DH         PUBLIC        ?C?CLDOPTR
  -------         ENDMOD        ?C?CLDOPTR

  -------         MODULE        ?C?CSTOPTR
  C:0D6AH         PUBLIC        ?C?CSTOPTR
  -------         ENDMOD        ?C?CSTOPTR

  -------         MODULE        ?C?IMUL
  C:0D8CH         PUBLIC        ?C?IMUL
  -------         ENDMOD        ?C?IMUL

  -------         MODULE        ?C?UIDIV
  C:0D9EH         PUBLIC        ?C?UIDIV
  -------         ENDMOD        ?C?UIDIV

  -------         MODULE        ?C?SIDIV
  C:0DF3H         PUBLIC        ?C?SIDIV
  -------         ENDMOD        ?C?SIDIV

  -------         MODULE        ?C?SLDIV
  C:1809H         PUBLIC        ?C?SLDIV
  -------         ENDMOD        ?C?SLDIV

  -------         MODULE        ?C?ULDIV
  C:0E65H         PUBLIC        ?C?ULDIV
  -------         ENDMOD        ?C?ULDIV

*** WARNING L16: UNCALLED SEGMENT, IGNORED FOR OVERLAY PROCESS
    SEGMENT: ?PR?LCD1602_TEST?1602

*** WARNING L16: UNCALLED SEGMENT, IGNORED FOR OVERLAY PROCESS
    SEGMENT: ?PR?LCD1602_INIT?1602

*** WARNING L16: UNCALLED SEGMENT, IGNORED FOR OVERLAY PROCESS
    SEGMENT: ?PR?LCD1602_BUSY?1602

*** WARNING L16: UNCALLED SEGMENT, IGNORED FOR OVERLAY PROCESS
    SEGMENT: ?PR?_LCD1602_SHOWNUM?1602

*** WARNING L16: UNCALLED SEGMENT, IGNORED FOR OVERLAY PROCESS
    SEGMENT: ?PR?DIGC_TEST?DIG_C

*** WARNING L16: UNCALLED SEGMENT, IGNORED FOR OVERLAY PROCESS
    SEGMENT: ?PR?_HC165_TEST?HC165

*** WARNING L16: UNCALLED SEGMENT, IGNORED FOR OVERLAY PROCESS
    SEGMENT: ?PR?_SPI_READWRITEBYTE1?MYSPI

*** WARNING L16: UNCALLED SEGMENT, IGNORED FOR OVERLAY PROCESS
    SEGMENT: ?PR?_NRF24L01_TXPACKET?NRF24L01

*** WARNING L16: UNCALLED SEGMENT, IGNORED FOR OVERLAY PROCESS
    SEGMENT: ?PR?_NRF24L01_RXPACKET?NRF24L01
BL51 BANKED LINKER/LOCATER V6.22                                                      08/30/2015  19:47:02  PAGE 31



*** WARNING L16: UNCALLED SEGMENT, IGNORED FOR OVERLAY PROCESS
    SEGMENT: ?PR?RX_MODE?NRF24L01

*** WARNING L16: UNCALLED SEGMENT, IGNORED FOR OVERLAY PROCESS
    SEGMENT: ?PR?TX_MODE?NRF24L01

*** WARNING L16: UNCALLED SEGMENT, IGNORED FOR OVERLAY PROCESS
    SEGMENT: ?PR?OLED_TEST?OLED

*** WARNING L16: UNCALLED SEGMENT, IGNORED FOR OVERLAY PROCESS
    SEGMENT: ?PR?LCD_FILL?OLED

*** WARNING L16: UNCALLED SEGMENT, IGNORED FOR OVERLAY PROCESS
    SEGMENT: ?PR?_SHOW_F6X8STR?OLED

*** WARNING L16: UNCALLED SEGMENT, IGNORED FOR OVERLAY PROCESS
    SEGMENT: ?PR?_SHOW_NUM_F6X8?OLED

*** WARNING L16: UNCALLED SEGMENT, IGNORED FOR OVERLAY PROCESS
    SEGMENT: ?PR?_SHOW_PICTURE?OLED

*** WARNING L16: UNCALLED SEGMENT, IGNORED FOR OVERLAY PROCESS
    SEGMENT: ?PR?_UART_INIT?UART

*** WARNING L16: UNCALLED SEGMENT, IGNORED FOR OVERLAY PROCESS
    SEGMENT: ?PR?_UART_SENDNUM?UART

*** WARNING L16: UNCALLED SEGMENT, IGNORED FOR OVERLAY PROCESS
    SEGMENT: ?PR?MPU6050_TEST?MPU6050

*** WARNING L16: UNCALLED SEGMENT, IGNORED FOR OVERLAY PROCESS
    SEGMENT: ?PR?MPU6050_INIT?MPU6050

*** WARNING L16: UNCALLED SEGMENT, IGNORED FOR OVERLAY PROCESS
    SEGMENT: ?PR?MPU6050_READ_ALL_DAT?MPU6050

*** WARNING L16: UNCALLED SEGMENT, IGNORED FOR OVERLAY PROCESS
    SEGMENT: ?PR?KEYSCAN?KEY

*** WARNING L16: UNCALLED SEGMENT, IGNORED FOR OVERLAY PROCESS
    SEGMENT: ?PR?FLASH_TEST?FLASH

*** WARNING L16: UNCALLED SEGMENT, IGNORED FOR OVERLAY PROCESS
    SEGMENT: ?PR?_SPI_FLASH_WRITE_PAGE?FLASH

*** WARNING L16: UNCALLED SEGMENT, IGNORED FOR OVERLAY PROCESS
    SEGMENT: ?PR?_SPI_FLASH_READ?FLASH

Program Size: data=9.1 xdata=127 code=7907
LINK/LOCATE RUN COMPLETE.  25 WARNING(S),  0 ERROR(S)
